target datalayout = "e-m:e-p270:32:32-p271:32:32-p272:64:64-i64:64-i128:128-f80:128-n8:16:32:64-S128"
target triple = "x86_64-pc-linux-gnu"

%struct.ARKodeMemRec = type { ptr, double, ptr, i32, i32, double, double, ptr, i32, double, ptr, i32, i32, ptr, ptr, i32, ptr, ptr, i32, ptr, ptr, ptr, ptr, ptr, ptr, ptr, ptr, ptr, ptr, ptr, ptr, ptr, ptr, ptr, i32, ptr, ptr, i32, ptr, i32, ptr, ptr, ptr, ptr, ptr, ptr, ptr, ptr, ptr, ptr, ptr, ptr, ptr, ptr, ptr, ptr, ptr, ptr, ptr, ptr, ptr, ptr, ptr, ptr, ptr, ptr, i32, ptr, ptr, ptr, ptr, ptr, ptr, ptr, i32, ptr, ptr, ptr, i32, ptr, ptr, ptr, ptr, ptr, ptr, ptr, i32, i32, i32, i32, double, double, double, double, double, double, double, double, double, double, i32, ptr, i64, i32, i32, i32, i32, i64, i64, i32, i64, i64, i64, i64, i64, i64, i64, double, double, double, double, double, i32, double, double, i32, i32, i32, i32, i32, i32, i32, i32, ptr, i32, ptr, ptr, ptr, ptr, i32, i32, i32 }
%struct.ARKodeERKStepMemRec = type { ptr, ptr, i32, i32, i32, ptr, i64, ptr, ptr, i32, double, double, ptr, i32, ptr, ptr }

; Function Attrs: nounwind uwtable
define void @erkStep_Free(ptr noundef %0) #0 {
  %2 = alloca ptr, align 8
  %3 = alloca i32, align 4
  %4 = alloca i64, align 8
  %5 = alloca i64, align 8
  %6 = alloca ptr, align 8
  %7 = alloca i32, align 4
  store ptr %0, ptr %2, align 8, !tbaa !15
  call void @llvm.lifetime.start.p0(i64 4, ptr %3) #8
  call void @llvm.lifetime.start.p0(i64 8, ptr %4) #8
  call void @llvm.lifetime.start.p0(i64 8, ptr %5) #8
  call void @llvm.lifetime.start.p0(i64 8, ptr %6) #8
  %8 = load ptr, ptr %2, align 8, !tbaa !15
  %9 = icmp eq ptr %8, null
  br i1 %9, label %10, label %11

10:                                               ; preds = %1
  store i32 1, ptr %7, align 4
  br label %165

11:                                               ; preds = %1
  %12 = load ptr, ptr %2, align 8, !tbaa !15
  %13 = getelementptr inbounds nuw %struct.ARKodeMemRec, ptr %12, i32 0, i32 19
  %14 = load ptr, ptr %13, align 8, !tbaa !41
  %15 = icmp ne ptr %14, null
  br i1 %15, label %16, label %164

16:                                               ; preds = %11
  %17 = load ptr, ptr %2, align 8, !tbaa !15
  %18 = getelementptr inbounds nuw %struct.ARKodeMemRec, ptr %17, i32 0, i32 19
  %19 = load ptr, ptr %18, align 8, !tbaa !41
  store ptr %19, ptr %6, align 8, !tbaa !17
  %20 = load ptr, ptr %6, align 8, !tbaa !17
  %21 = getelementptr inbounds nuw %struct.ARKodeERKStepMemRec, ptr %20, i32 0, i32 5
  %22 = load ptr, ptr %21, align 8, !tbaa !70
  %23 = icmp ne ptr %22, null
  br i1 %23, label %24, label %43

24:                                               ; preds = %16
  %25 = load ptr, ptr %6, align 8, !tbaa !17
  %26 = getelementptr inbounds nuw %struct.ARKodeERKStepMemRec, ptr %25, i32 0, i32 5
  %27 = load ptr, ptr %26, align 8, !tbaa !70
  call void @ARKodeButcherTable_Space(ptr noundef %27, ptr noundef %4, ptr noundef %5)
  %28 = load ptr, ptr %6, align 8, !tbaa !17
  %29 = getelementptr inbounds nuw %struct.ARKodeERKStepMemRec, ptr %28, i32 0, i32 5
  %30 = load ptr, ptr %29, align 8, !tbaa !70
  call void @ARKodeButcherTable_Free(ptr noundef %30)
  %31 = load ptr, ptr %6, align 8, !tbaa !17
  %32 = getelementptr inbounds nuw %struct.ARKodeERKStepMemRec, ptr %31, i32 0, i32 5
  store ptr null, ptr %32, align 8, !tbaa !70
  %33 = load i64, ptr %4, align 8, !tbaa !106
  %34 = load ptr, ptr %2, align 8, !tbaa !15
  %35 = getelementptr inbounds nuw %struct.ARKodeMemRec, ptr %34, i32 0, i32 116
  %36 = load i64, ptr %35, align 8, !tbaa !47
  %37 = sub nsw i64 %36, %33
  store i64 %37, ptr %35, align 8, !tbaa !47
  %38 = load i64, ptr %5, align 8, !tbaa !106
  %39 = load ptr, ptr %2, align 8, !tbaa !15
  %40 = getelementptr inbounds nuw %struct.ARKodeMemRec, ptr %39, i32 0, i32 115
  %41 = load i64, ptr %40, align 8, !tbaa !48
  %42 = sub nsw i64 %41, %38
  store i64 %42, ptr %40, align 8, !tbaa !48
  br label %43

43:                                               ; preds = %24, %16
  %44 = load ptr, ptr %6, align 8, !tbaa !17
  %45 = getelementptr inbounds nuw %struct.ARKodeERKStepMemRec, ptr %44, i32 0, i32 1
  %46 = load ptr, ptr %45, align 8, !tbaa !82
  %47 = icmp ne ptr %46, null
  br i1 %47, label %48, label %80

48:                                               ; preds = %43
  store i32 0, ptr %3, align 4, !tbaa !13
  br label %49

49:                                               ; preds = %63, %48
  %50 = load i32, ptr %3, align 4, !tbaa !13
  %51 = load ptr, ptr %6, align 8, !tbaa !17
  %52 = getelementptr inbounds nuw %struct.ARKodeERKStepMemRec, ptr %51, i32 0, i32 4
  %53 = load i32, ptr %52, align 8, !tbaa !83
  %54 = icmp slt i32 %50, %53
  br i1 %54, label %55, label %66

55:                                               ; preds = %49
  %56 = load ptr, ptr %2, align 8, !tbaa !15
  %57 = load ptr, ptr %6, align 8, !tbaa !17
  %58 = getelementptr inbounds nuw %struct.ARKodeERKStepMemRec, ptr %57, i32 0, i32 1
  %59 = load ptr, ptr %58, align 8, !tbaa !82
  %60 = load i32, ptr %3, align 4, !tbaa !13
  %61 = sext i32 %60 to i64
  %62 = getelementptr inbounds ptr, ptr %59, i64 %61
  call void @arkFreeVec(ptr noundef %56, ptr noundef %62)
  br label %63

63:                                               ; preds = %55
  %64 = load i32, ptr %3, align 4, !tbaa !13
  %65 = add nsw i32 %64, 1
  store i32 %65, ptr %3, align 4, !tbaa !13
  br label %49

66:                                               ; preds = %49
  %67 = load ptr, ptr %6, align 8, !tbaa !17
  %68 = getelementptr inbounds nuw %struct.ARKodeERKStepMemRec, ptr %67, i32 0, i32 1
  %69 = load ptr, ptr %68, align 8, !tbaa !82
  call void @free(ptr noundef %69) #8
  %70 = load ptr, ptr %6, align 8, !tbaa !17
  %71 = getelementptr inbounds nuw %struct.ARKodeERKStepMemRec, ptr %70, i32 0, i32 1
  store ptr null, ptr %71, align 8, !tbaa !82
  %72 = load ptr, ptr %6, align 8, !tbaa !17
  %73 = getelementptr inbounds nuw %struct.ARKodeERKStepMemRec, ptr %72, i32 0, i32 4
  %74 = load i32, ptr %73, align 8, !tbaa !83
  %75 = sext i32 %74 to i64
  %76 = load ptr, ptr %2, align 8, !tbaa !15
  %77 = getelementptr inbounds nuw %struct.ARKodeMemRec, ptr %76, i32 0, i32 116
  %78 = load i64, ptr %77, align 8, !tbaa !47
  %79 = sub nsw i64 %78, %75
  store i64 %79, ptr %77, align 8, !tbaa !47
  br label %80

80:                                               ; preds = %66, %43
  %81 = load ptr, ptr %6, align 8, !tbaa !17
  %82 = getelementptr inbounds nuw %struct.ARKodeERKStepMemRec, ptr %81, i32 0, i32 7
  %83 = load ptr, ptr %82, align 8, !tbaa !50
  %84 = icmp ne ptr %83, null
  br i1 %84, label %85, label %99

85:                                               ; preds = %80
  %86 = load ptr, ptr %6, align 8, !tbaa !17
  %87 = getelementptr inbounds nuw %struct.ARKodeERKStepMemRec, ptr %86, i32 0, i32 7
  %88 = load ptr, ptr %87, align 8, !tbaa !50
  call void @free(ptr noundef %88) #8
  %89 = load ptr, ptr %6, align 8, !tbaa !17
  %90 = getelementptr inbounds nuw %struct.ARKodeERKStepMemRec, ptr %89, i32 0, i32 7
  store ptr null, ptr %90, align 8, !tbaa !50
  %91 = load ptr, ptr %6, align 8, !tbaa !17
  %92 = getelementptr inbounds nuw %struct.ARKodeERKStepMemRec, ptr %91, i32 0, i32 9
  %93 = load i32, ptr %92, align 8, !tbaa !52
  %94 = sext i32 %93 to i64
  %95 = load ptr, ptr %2, align 8, !tbaa !15
  %96 = getelementptr inbounds nuw %struct.ARKodeMemRec, ptr %95, i32 0, i32 115
  %97 = load i64, ptr %96, align 8, !tbaa !48
  %98 = sub nsw i64 %97, %94
  store i64 %98, ptr %96, align 8, !tbaa !48
  br label %99

99:                                               ; preds = %85, %80
  %100 = load ptr, ptr %6, align 8, !tbaa !17
  %101 = getelementptr inbounds nuw %struct.ARKodeERKStepMemRec, ptr %100, i32 0, i32 8
  %102 = load ptr, ptr %101, align 8, !tbaa !51
  %103 = icmp ne ptr %102, null
  br i1 %103, label %104, label %118

104:                                              ; preds = %99
  %105 = load ptr, ptr %6, align 8, !tbaa !17
  %106 = getelementptr inbounds nuw %struct.ARKodeERKStepMemRec, ptr %105, i32 0, i32 8
  %107 = load ptr, ptr %106, align 8, !tbaa !51
  call void @free(ptr noundef %107) #8
  %108 = load ptr, ptr %6, align 8, !tbaa !17
  %109 = getelementptr inbounds nuw %struct.ARKodeERKStepMemRec, ptr %108, i32 0, i32 8
  store ptr null, ptr %109, align 8, !tbaa !51
  %110 = load ptr, ptr %6, align 8, !tbaa !17
  %111 = getelementptr inbounds nuw %struct.ARKodeERKStepMemRec, ptr %110, i32 0, i32 9
  %112 = load i32, ptr %111, align 8, !tbaa !52
  %113 = sext i32 %112 to i64
  %114 = load ptr, ptr %2, align 8, !tbaa !15
  %115 = getelementptr inbounds nuw %struct.ARKodeMemRec, ptr %114, i32 0, i32 116
  %116 = load i64, ptr %115, align 8, !tbaa !47
  %117 = sub nsw i64 %116, %113
  store i64 %117, ptr %115, align 8, !tbaa !47
  br label %118

118:                                              ; preds = %104, %99
  %119 = load ptr, ptr %6, align 8, !tbaa !17
  %120 = getelementptr inbounds nuw %struct.ARKodeERKStepMemRec, ptr %119, i32 0, i32 9
  store i32 0, ptr %120, align 8, !tbaa !52
  %121 = load ptr, ptr %6, align 8, !tbaa !17
  %122 = getelementptr inbounds nuw %struct.ARKodeERKStepMemRec, ptr %121, i32 0, i32 14
  %123 = load ptr, ptr %122, align 8, !tbaa !85
  %124 = icmp ne ptr %123, null
  br i1 %124, label %125, label %139

125:                                              ; preds = %118
  %126 = load ptr, ptr %6, align 8, !tbaa !17
  %127 = getelementptr inbounds nuw %struct.ARKodeERKStepMemRec, ptr %126, i32 0, i32 14
  %128 = load ptr, ptr %127, align 8, !tbaa !85
  call void @free(ptr noundef %128) #8
  %129 = load ptr, ptr %6, align 8, !tbaa !17
  %130 = getelementptr inbounds nuw %struct.ARKodeERKStepMemRec, ptr %129, i32 0, i32 14
  store ptr null, ptr %130, align 8, !tbaa !85
  %131 = load ptr, ptr %6, align 8, !tbaa !17
  %132 = getelementptr inbounds nuw %struct.ARKodeERKStepMemRec, ptr %131, i32 0, i32 4
  %133 = load i32, ptr %132, align 8, !tbaa !83
  %134 = sext i32 %133 to i64
  %135 = load ptr, ptr %2, align 8, !tbaa !15
  %136 = getelementptr inbounds nuw %struct.ARKodeMemRec, ptr %135, i32 0, i32 115
  %137 = load i64, ptr %136, align 8, !tbaa !48
  %138 = sub nsw i64 %137, %134
  store i64 %138, ptr %136, align 8, !tbaa !48
  br label %139

139:                                              ; preds = %125, %118
  %140 = load ptr, ptr %6, align 8, !tbaa !17
  %141 = getelementptr inbounds nuw %struct.ARKodeERKStepMemRec, ptr %140, i32 0, i32 15
  %142 = load ptr, ptr %141, align 8, !tbaa !86
  %143 = icmp ne ptr %142, null
  br i1 %143, label %144, label %158

144:                                              ; preds = %139
  %145 = load ptr, ptr %6, align 8, !tbaa !17
  %146 = getelementptr inbounds nuw %struct.ARKodeERKStepMemRec, ptr %145, i32 0, i32 15
  %147 = load ptr, ptr %146, align 8, !tbaa !86
  call void @free(ptr noundef %147) #8
  %148 = load ptr, ptr %6, align 8, !tbaa !17
  %149 = getelementptr inbounds nuw %struct.ARKodeERKStepMemRec, ptr %148, i32 0, i32 15
  store ptr null, ptr %149, align 8, !tbaa !86
  %150 = load ptr, ptr %6, align 8, !tbaa !17
  %151 = getelementptr inbounds nuw %struct.ARKodeERKStepMemRec, ptr %150, i32 0, i32 4
  %152 = load i32, ptr %151, align 8, !tbaa !83
  %153 = sext i32 %152 to i64
  %154 = load ptr, ptr %2, align 8, !tbaa !15
  %155 = getelementptr inbounds nuw %struct.ARKodeMemRec, ptr %154, i32 0, i32 115
  %156 = load i64, ptr %155, align 8, !tbaa !48
  %157 = sub nsw i64 %156, %153
  store i64 %157, ptr %155, align 8, !tbaa !48
  br label %158

158:                                              ; preds = %144, %139
  %159 = load ptr, ptr %2, align 8, !tbaa !15
  %160 = getelementptr inbounds nuw %struct.ARKodeMemRec, ptr %159, i32 0, i32 19
  %161 = load ptr, ptr %160, align 8, !tbaa !41
  call void @free(ptr noundef %161) #8
  %162 = load ptr, ptr %2, align 8, !tbaa !15
  %163 = getelementptr inbounds nuw %struct.ARKodeMemRec, ptr %162, i32 0, i32 19
  store ptr null, ptr %163, align 8, !tbaa !41
  br label %164

164:                                              ; preds = %158, %11
  store i32 0, ptr %7, align 4
  br label %165

165:                                              ; preds = %164, %10
  call void @llvm.lifetime.end.p0(i64 8, ptr %6) #8
  call void @llvm.lifetime.end.p0(i64 8, ptr %5) #8
  call void @llvm.lifetime.end.p0(i64 8, ptr %4) #8
  call void @llvm.lifetime.end.p0(i64 4, ptr %3) #8
  %166 = load i32, ptr %7, align 4
  switch i32 %166, label %168 [
    i32 0, label %167
    i32 1, label %167
  ]

167:                                              ; preds = %165, %165
  ret void

168:                                              ; preds = %165
  unreachable
}