; Function Attrs: nounwind uwtable
define void @erkStep_Free(ptr noundef %0) #0 {
  %2 = alloca i64, align 8
  %3 = alloca i64, align 8
  call void @llvm.lifetime.start.p0(i64 8, ptr nonnull %2) #12
  call void @llvm.lifetime.start.p0(i64 8, ptr nonnull %3) #12
  %4 = icmp eq ptr %0, null
  br i1 %4, label %81, label %5

5:                                                ; preds = %1
  %6 = getelementptr inbounds nuw i8, ptr %0, i64 136
  %7 = load ptr, ptr %6, align 8, !tbaa !44
  %.not = icmp eq ptr %7, null
  br i1 %.not, label %81, label %8

8:                                                ; preds = %5
  %9 = getelementptr inbounds nuw i8, ptr %7, i64 32
  %10 = load ptr, ptr %9, align 8, !tbaa !59
  %.not49 = icmp eq ptr %10, null
  br i1 %.not49, label %21, label %11

11:                                               ; preds = %8
  call void @ARKodeButcherTable_Space(ptr noundef nonnull %10, ptr noundef nonnull %2, ptr noundef nonnull %3) #12
  %12 = load ptr, ptr %9, align 8, !tbaa !59
  call void @ARKodeButcherTable_Free(ptr noundef %12) #12
  store ptr null, ptr %9, align 8, !tbaa !59
  %13 = load i64, ptr %2, align 8, !tbaa !101
  %14 = getelementptr inbounds nuw i8, ptr %0, i64 880
  %15 = load i64, ptr %14, align 8, !tbaa !50
  %16 = sub nsw i64 %15, %13
  store i64 %16, ptr %14, align 8, !tbaa !50
  %17 = load i64, ptr %3, align 8, !tbaa !101
  %18 = getelementptr inbounds nuw i8, ptr %0, i64 872
  %19 = load i64, ptr %18, align 8, !tbaa !51
  %20 = sub nsw i64 %19, %17
  store i64 %20, ptr %18, align 8, !tbaa !51
  br label %21

21:                                               ; preds = %11, %8
  %22 = getelementptr inbounds nuw i8, ptr %7, i64 8
  %23 = load ptr, ptr %22, align 8, !tbaa !71
  %.not50 = icmp eq ptr %23, null
  br i1 %.not50, label %38, label %.preheader

.preheader:                                       ; preds = %21
  %24 = getelementptr inbounds nuw i8, ptr %7, i64 24
  %25 = load i32, ptr %24, align 8, !tbaa !72
  %26 = icmp sgt i32 %25, 0
  br i1 %26, label %.lr.ph, label %._crit_edge

.lr.ph:                                           ; preds = %.preheader, %.lr.ph
  %indvars.iv = phi i64 [ %indvars.iv.next, %.lr.ph ], [ 0, %.preheader ]
  %27 = load ptr, ptr %22, align 8, !tbaa !71
  %28 = getelementptr inbounds nuw ptr, ptr %27, i64 %indvars.iv
  call void @arkFreeVec(ptr noundef nonnull %0, ptr noundef %28) #12
  %indvars.iv.next = add nuw nsw i64 %indvars.iv, 1
  %29 = load i32, ptr %24, align 8, !tbaa !72
  %30 = sext i32 %29 to i64
  %31 = icmp slt i64 %indvars.iv.next, %30
  br i1 %31, label %.lr.ph, label %._crit_edge.loopexit

._crit_edge.loopexit:                             ; preds = %.lr.ph
  %.pre = load ptr, ptr %22, align 8, !tbaa !71
  br label %._crit_edge

._crit_edge:                                      ; preds = %._crit_edge.loopexit, %.preheader
  %32 = phi ptr [ %.pre, %._crit_edge.loopexit ], [ %23, %.preheader ]
  call void @free(ptr noundef %32) #12
  store ptr null, ptr %22, align 8, !tbaa !71
  %33 = load i32, ptr %24, align 8, !tbaa !72
  %34 = sext i32 %33 to i64
  %35 = getelementptr inbounds nuw i8, ptr %0, i64 880
  %36 = load i64, ptr %35, align 8, !tbaa !50
  %37 = sub nsw i64 %36, %34
  store i64 %37, ptr %35, align 8, !tbaa !50
  br label %38

38:                                               ; preds = %._crit_edge, %21
  %39 = getelementptr inbounds nuw i8, ptr %7, i64 48
  %40 = load ptr, ptr %39, align 8, !tbaa !75
  %.not51 = icmp eq ptr %40, null
  br i1 %.not51, label %48, label %41

41:                                               ; preds = %38
  call void @free(ptr noundef nonnull %40) #12
  store ptr null, ptr %39, align 8, !tbaa !75
  %42 = getelementptr inbounds nuw i8, ptr %7, i64 64
  %43 = load i32, ptr %42, align 8, !tbaa !74
  %44 = sext i32 %43 to i64
  %45 = getelementptr inbounds nuw i8, ptr %0, i64 872
  %46 = load i64, ptr %45, align 8, !tbaa !51
  %47 = sub nsw i64 %46, %44
  store i64 %47, ptr %45, align 8, !tbaa !51
  br label %48

48:                                               ; preds = %41, %38
  %49 = getelementptr inbounds nuw i8, ptr %7, i64 56
  %50 = load ptr, ptr %49, align 8, !tbaa !76
  %.not52 = icmp eq ptr %50, null
  br i1 %.not52, label %58, label %51

51:                                               ; preds = %48
  call void @free(ptr noundef nonnull %50) #12
  store ptr null, ptr %49, align 8, !tbaa !76
  %52 = getelementptr inbounds nuw i8, ptr %7, i64 64
  %53 = load i32, ptr %52, align 8, !tbaa !74
  %54 = sext i32 %53 to i64
  %55 = getelementptr inbounds nuw i8, ptr %0, i64 880
  %56 = load i64, ptr %55, align 8, !tbaa !50
  %57 = sub nsw i64 %56, %54
  store i64 %57, ptr %55, align 8, !tbaa !50
  br label %58

58:                                               ; preds = %51, %48
  %59 = getelementptr inbounds nuw i8, ptr %7, i64 64
  store i32 0, ptr %59, align 8, !tbaa !74
  %60 = getelementptr inbounds nuw i8, ptr %7, i64 104
  %61 = load ptr, ptr %60, align 8, !tbaa !77
  %.not53 = icmp eq ptr %61, null
  br i1 %.not53, label %69, label %62

62:                                               ; preds = %58
  call void @free(ptr noundef nonnull %61) #12
  store ptr null, ptr %60, align 8, !tbaa !77
  %63 = getelementptr inbounds nuw i8, ptr %7, i64 24
  %64 = load i32, ptr %63, align 8, !tbaa !72
  %65 = sext i32 %64 to i64
  %66 = getelementptr inbounds nuw i8, ptr %0, i64 872
  %67 = load i64, ptr %66, align 8, !tbaa !51
  %68 = sub nsw i64 %67, %65
  store i64 %68, ptr %66, align 8, !tbaa !51
  br label %69

69:                                               ; preds = %62, %58
  %70 = getelementptr inbounds nuw i8, ptr %7, i64 112
  %71 = load ptr, ptr %70, align 8, !tbaa !78
  %.not54 = icmp eq ptr %71, null
  br i1 %.not54, label %79, label %72

72:                                               ; preds = %69
  call void @free(ptr noundef nonnull %71) #12
  store ptr null, ptr %70, align 8, !tbaa !78
  %73 = getelementptr inbounds nuw i8, ptr %7, i64 24
  %74 = load i32, ptr %73, align 8, !tbaa !72
  %75 = sext i32 %74 to i64
  %76 = getelementptr inbounds nuw i8, ptr %0, i64 872
  %77 = load i64, ptr %76, align 8, !tbaa !51
  %78 = sub nsw i64 %77, %75
  store i64 %78, ptr %76, align 8, !tbaa !51
  br label %79

79:                                               ; preds = %72, %69
  %80 = load ptr, ptr %6, align 8, !tbaa !44
  call void @free(ptr noundef %80) #12
  store ptr null, ptr %6, align 8, !tbaa !44
  br label %81

81:                                               ; preds = %5, %79, %1
  call void @llvm.lifetime.end.p0(i64 8, ptr nonnull %3) #12
  call void @llvm.lifetime.end.p0(i64 8, ptr nonnull %2) #12
  ret void
}